
Allocating common symbols
Common symbol       size              file

HSEStartUpStatus    0x1               ..\obj\usb_bsp.o
USBH_MSC_CSWData    0x10              ..\obj\usbh_msc_bot.o
MSC_Machine         0x4a              ..\obj\usbh_msc_core.o
USBH_DataInBuffer   0x200             ..\obj\usbh_msc_scsi.o
USBH_MSC_Param      0x10              ..\obj\usbh_msc_scsi.o
USBH_MSC_BOTXferParam
                    0x10              ..\obj\usbh_msc_bot.o
USB_MSC_HOST_STATUS
                    0x1               ..\obj\stm32_ub_usb_msc_host.o
USB_OTG_Core        0x4b0             ..\obj\stm32_ub_usb_msc_host.o
USBH_DataOutBuffer  0x200             ..\obj\usbh_msc_scsi.o
MSC_Setup           0x8               ..\obj\usbh_msc_core.o
USBH_MSC_CBWData    0x20              ..\obj\usbh_msc_bot.o
USB_Host            0x84              ..\obj\stm32_ub_usb_msc_host.o

Discarded input sections

 .text          0x00000000        0x0 ..\obj\usb_core.o
 .data          0x00000000        0x0 ..\obj\usb_core.o
 .bss           0x00000000        0x0 ..\obj\usb_core.o
 .text.USB_OTG_IsDeviceMode
                0x00000000       0x24 ..\obj\usb_core.o
 .text.USB_OTG_ReadOtgItr
                0x00000000       0x1c ..\obj\usb_core.o
 .text.USB_OTG_StopHost
                0x00000000       0x90 ..\obj\usb_core.o
 .text          0x00000000        0x0 ..\obj\stm32_ub_usb_msc_host.o
 .data          0x00000000        0x0 ..\obj\stm32_ub_usb_msc_host.o
 .bss           0x00000000        0x0 ..\obj\stm32_ub_usb_msc_host.o
 .text          0x00000000        0x0 ..\obj\usbh_hcs.o
 .data          0x00000000        0x0 ..\obj\usbh_hcs.o
 .bss           0x00000000        0x0 ..\obj\usbh_hcs.o
 .text          0x00000000        0x0 ..\obj\usbh_stdreq.o
 .data          0x00000000        0x0 ..\obj\usbh_stdreq.o
 .bss           0x00000000        0x0 ..\obj\usbh_stdreq.o
 .text          0x00000000        0x0 ..\obj\diskio.o
 .data          0x00000000        0x0 ..\obj\diskio.o
 .bss           0x00000000        0x0 ..\obj\diskio.o
 .text.get_fattime
                0x00000000       0x14 ..\obj\diskio.o
 .text          0x00000000        0x0 ..\obj\startup_stm32f4xx.o
 .data          0x00000000        0x0 ..\obj\startup_stm32f4xx.o
 .bss           0x00000000        0x0 ..\obj\startup_stm32f4xx.o
 .text          0x00000000        0x0 ..\obj\stm32_ub_led.o
 .bss           0x00000000        0x0 ..\obj\stm32_ub_led.o
 .text.UB_Led_Toggle
                0x00000000       0x74 ..\obj\stm32_ub_led.o
 .text.UB_Led_Switch
                0x00000000       0x30 ..\obj\stm32_ub_led.o
 .text          0x00000000        0x0 ..\obj\main.o
 .data          0x00000000        0x0 ..\obj\main.o
 .bss           0x00000000        0x0 ..\obj\main.o
 .text          0x00000000        0x0 ..\obj\stm32_ub_fatfs.o
 .data          0x00000000        0x0 ..\obj\stm32_ub_fatfs.o
 .text.UB_Fatfs_Init
                0x00000000       0x14 ..\obj\stm32_ub_fatfs.o
 .text.UB_Fatfs_CheckMedia
                0x00000000       0x44 ..\obj\stm32_ub_fatfs.o
 .text.UB_Fatfs_DelFile
                0x00000000       0x40 ..\obj\stm32_ub_fatfs.o
 .text.UB_Fatfs_OpenFile
                0x00000000       0xbc ..\obj\stm32_ub_fatfs.o
 .text.UB_Fatfs_CloseFile
                0x00000000       0x40 ..\obj\stm32_ub_fatfs.o
 .text.UB_Fatfs_WriteString
                0x00000000       0x4c ..\obj\stm32_ub_fatfs.o
 .text.UB_Fatfs_ReadString
                0x00000000       0x6c ..\obj\stm32_ub_fatfs.o
 .text.UB_Fatfs_FileSize
                0x00000000       0x2c ..\obj\stm32_ub_fatfs.o
 .text.UB_Fatfs_ReadBlock
                0x00000000       0x88 ..\obj\stm32_ub_fatfs.o
 .text.UB_Fatfs_WriteBlock
                0x00000000       0x88 ..\obj\stm32_ub_fatfs.o
 .text          0x00000000        0x0 ..\obj\stm32f4xx_rcc.o
 .data          0x00000000       0x10 ..\obj\stm32f4xx_rcc.o
 .bss           0x00000000        0x0 ..\obj\stm32f4xx_rcc.o
 .text.RCC_DeInit
                0x00000000       0x84 ..\obj\stm32f4xx_rcc.o
 .text.RCC_HSEConfig
                0x00000000       0x30 ..\obj\stm32f4xx_rcc.o
 .text.RCC_WaitForHSEStartUp
                0x00000000       0x64 ..\obj\stm32f4xx_rcc.o
 .text.RCC_AdjustHSICalibrationValue
                0x00000000       0x48 ..\obj\stm32f4xx_rcc.o
 .text.RCC_HSICmd
                0x00000000       0x20 ..\obj\stm32f4xx_rcc.o
 .text.RCC_LSEConfig
                0x00000000       0x60 ..\obj\stm32f4xx_rcc.o
 .text.RCC_LSICmd
                0x00000000       0x20 ..\obj\stm32f4xx_rcc.o
 .text.RCC_PLLConfig
                0x00000000       0x48 ..\obj\stm32f4xx_rcc.o
 .text.RCC_PLLCmd
                0x00000000       0x20 ..\obj\stm32f4xx_rcc.o
 .text.RCC_PLLI2SConfig
                0x00000000       0x30 ..\obj\stm32f4xx_rcc.o
 .text.RCC_PLLI2SCmd
                0x00000000       0x20 ..\obj\stm32f4xx_rcc.o
 .text.RCC_ClockSecuritySystemCmd
                0x00000000       0x20 ..\obj\stm32f4xx_rcc.o
 .text.RCC_MCO1Config
                0x00000000       0x48 ..\obj\stm32f4xx_rcc.o
 .text.RCC_MCO2Config
                0x00000000       0x48 ..\obj\stm32f4xx_rcc.o
 .text.RCC_SYSCLKConfig
                0x00000000       0x40 ..\obj\stm32f4xx_rcc.o
 .text.RCC_GetSYSCLKSource
                0x00000000       0x20 ..\obj\stm32f4xx_rcc.o
 .text.RCC_HCLKConfig
                0x00000000       0x40 ..\obj\stm32f4xx_rcc.o
 .text.RCC_PCLK1Config
                0x00000000       0x40 ..\obj\stm32f4xx_rcc.o
 .text.RCC_PCLK2Config
                0x00000000       0x44 ..\obj\stm32f4xx_rcc.o
 .text.RCC_GetClocksFreq
                0x00000000      0x1cc ..\obj\stm32f4xx_rcc.o
 .text.RCC_RTCCLKConfig
                0x00000000       0x74 ..\obj\stm32f4xx_rcc.o
 .text.RCC_RTCCLKCmd
                0x00000000       0x20 ..\obj\stm32f4xx_rcc.o
 .text.RCC_BackupResetCmd
                0x00000000       0x20 ..\obj\stm32f4xx_rcc.o
 .text.RCC_I2SCLKConfig
                0x00000000       0x20 ..\obj\stm32f4xx_rcc.o
 .text.RCC_AHB3PeriphClockCmd
                0x00000000       0x54 ..\obj\stm32f4xx_rcc.o
 .text.RCC_APB1PeriphClockCmd
                0x00000000       0x54 ..\obj\stm32f4xx_rcc.o
 .text.RCC_APB2PeriphClockCmd
                0x00000000       0x54 ..\obj\stm32f4xx_rcc.o
 .text.RCC_AHB1PeriphResetCmd
                0x00000000       0x54 ..\obj\stm32f4xx_rcc.o
 .text.RCC_AHB2PeriphResetCmd
                0x00000000       0x54 ..\obj\stm32f4xx_rcc.o
 .text.RCC_AHB3PeriphResetCmd
                0x00000000       0x54 ..\obj\stm32f4xx_rcc.o
 .text.RCC_APB1PeriphResetCmd
                0x00000000       0x54 ..\obj\stm32f4xx_rcc.o
 .text.RCC_APB2PeriphResetCmd
                0x00000000       0x54 ..\obj\stm32f4xx_rcc.o
 .text.RCC_AHB1PeriphClockLPModeCmd
                0x00000000       0x54 ..\obj\stm32f4xx_rcc.o
 .text.RCC_AHB2PeriphClockLPModeCmd
                0x00000000       0x54 ..\obj\stm32f4xx_rcc.o
 .text.RCC_AHB3PeriphClockLPModeCmd
                0x00000000       0x54 ..\obj\stm32f4xx_rcc.o
 .text.RCC_APB1PeriphClockLPModeCmd
                0x00000000       0x54 ..\obj\stm32f4xx_rcc.o
 .text.RCC_APB2PeriphClockLPModeCmd
                0x00000000       0x54 ..\obj\stm32f4xx_rcc.o
 .text.RCC_ITConfig
                0x00000000       0x60 ..\obj\stm32f4xx_rcc.o
 .text.RCC_GetFlagStatus
                0x00000000       0x90 ..\obj\stm32f4xx_rcc.o
 .text.RCC_ClearFlag
                0x00000000       0x24 ..\obj\stm32f4xx_rcc.o
 .text.RCC_GetITStatus
                0x00000000       0x40 ..\obj\stm32f4xx_rcc.o
 .text.RCC_ClearITPendingBit
                0x00000000       0x20 ..\obj\stm32f4xx_rcc.o
 .text          0x00000000        0x0 ..\obj\usbh_msc_core.o
 .text          0x00000000        0x0 ..\obj\usbh_core.o
 .text          0x00000000        0x0 ..\obj\stm32_ub_sdcard.o
 .data          0x00000000        0x0 ..\obj\stm32_ub_sdcard.o
 .bss           0x00000000        0x0 ..\obj\stm32_ub_sdcard.o
 .text.UB_SDCard_Init
                0x00000000        0xc ..\obj\stm32_ub_sdcard.o
 .text.UB_SDCard_CheckMedia
                0x00000000       0x1c ..\obj\stm32_ub_sdcard.o
 .text          0x00000000        0x0 ..\obj\stm32f4xx_gpio.o
 .data          0x00000000        0x0 ..\obj\stm32f4xx_gpio.o
 .bss           0x00000000        0x0 ..\obj\stm32f4xx_gpio.o
 .text.GPIO_DeInit
                0x00000000      0x178 ..\obj\stm32f4xx_gpio.o
 .text.GPIO_StructInit
                0x00000000       0x3c ..\obj\stm32f4xx_gpio.o
 .text.GPIO_PinLockConfig
                0x00000000       0x44 ..\obj\stm32f4xx_gpio.o
 .text.GPIO_ReadInputDataBit
                0x00000000       0x3c ..\obj\stm32f4xx_gpio.o
 .text.GPIO_ReadInputData
                0x00000000       0x1c ..\obj\stm32f4xx_gpio.o
 .text.GPIO_ReadOutputDataBit
                0x00000000       0x3c ..\obj\stm32f4xx_gpio.o
 .text.GPIO_ReadOutputData
                0x00000000       0x1c ..\obj\stm32f4xx_gpio.o
 .text.GPIO_WriteBit
                0x00000000       0x30 ..\obj\stm32f4xx_gpio.o
 .text.GPIO_Write
                0x00000000       0x1c ..\obj\stm32f4xx_gpio.o
 .text.GPIO_ToggleBits
                0x00000000       0x24 ..\obj\stm32f4xx_gpio.o
 .text          0x00000000        0x0 ..\obj\stm32_ub_usbdisk.o
 .data          0x00000000        0x0 ..\obj\stm32_ub_usbdisk.o
 .bss           0x00000000        0x0 ..\obj\stm32_ub_usbdisk.o
 .text.UB_USBDisk_Init
                0x00000000        0xc ..\obj\stm32_ub_usbdisk.o
 .text.UB_USBDrive_CheckMedia
                0x00000000       0x48 ..\obj\stm32_ub_usbdisk.o
 .text          0x00000000        0x0 ..\obj\usbh_msc_scsi.o
 .bss           0x00000000        0x0 ..\obj\usbh_msc_scsi.o
 .text          0x00000000        0x0 ..\obj\system_stm32f4xx.o
 .data          0x00000000       0x14 ..\obj\system_stm32f4xx.o
 .bss           0x00000000        0x0 ..\obj\system_stm32f4xx.o
 .text.SystemCoreClockUpdate
                0x00000000      0x170 ..\obj\system_stm32f4xx.o
 .text          0x00000000        0x0 ..\obj\usbh_usr.o
 .text          0x00000000        0x0 ..\obj\ccsbcs.o
 .data          0x00000000        0x0 ..\obj\ccsbcs.o
 .bss           0x00000000        0x0 ..\obj\ccsbcs.o
 .text          0x00000000        0x0 ..\obj\usb_bsp.o
 .data          0x00000000        0x0 ..\obj\usb_bsp.o
 .bss           0x00000000        0x0 ..\obj\usb_bsp.o
 COMMON         0x00000000        0x1 ..\obj\usb_bsp.o
 .text          0x00000000        0x0 ..\obj\stm32_ub_atadrive.o
 .data          0x00000000        0x0 ..\obj\stm32_ub_atadrive.o
 .bss           0x00000000        0x0 ..\obj\stm32_ub_atadrive.o
 .text.UB_ATADrive_Init
                0x00000000        0xc ..\obj\stm32_ub_atadrive.o
 .text.UB_ATADrive_CheckMedia
                0x00000000       0x1c ..\obj\stm32_ub_atadrive.o
 .text          0x00000000        0x0 ..\obj\ff.o
 .data          0x00000000        0x0 ..\obj\ff.o
 .text.dir_alloc
                0x00000000       0x90 ..\obj\ff.o
 .text.st_clust
                0x00000000       0x5c ..\obj\ff.o
 .text.fit_lfn  0x00000000      0x110 ..\obj\ff.o
 .text.gen_numname
                0x00000000      0x108 ..\obj\ff.o
 .text.dir_register
                0x00000000      0x230 ..\obj\ff.o
 .text.f_open   0x00000000      0x2dc ..\obj\ff.o
 .text.f_read   0x00000000      0x2e8 ..\obj\ff.o
 .text.f_write  0x00000000      0x34c ..\obj\ff.o
 .text.f_sync   0x00000000      0x188 ..\obj\ff.o
 .text.f_close  0x00000000       0x2c ..\obj\ff.o
 .text.f_lseek  0x00000000      0x2d8 ..\obj\ff.o
 .text.f_stat   0x00000000       0x84 ..\obj\ff.o
 .text.f_truncate
                0x00000000      0x120 ..\obj\ff.o
 .text.f_mkdir  0x00000000      0x2ac ..\obj\ff.o
 .text.f_chmod  0x00000000       0xc8 ..\obj\ff.o
 .text.f_utime  0x00000000       0xd4 ..\obj\ff.o
 .text.f_rename
                0x00000000      0x1e8 ..\obj\ff.o
 .text.f_gets   0x00000000       0x90 ..\obj\ff.o
 .text.f_putc   0x00000000       0x54 ..\obj\ff.o
 .text.f_puts   0x00000000       0x50 ..\obj\ff.o
 .text.f_printf
                0x00000000      0x4cc ..\obj\ff.o
 .text          0x00000000        0x0 ..\obj\usb_hcd.o
 .data          0x00000000        0x0 ..\obj\usb_hcd.o
 .bss           0x00000000        0x0 ..\obj\usb_hcd.o
 .text.HCD_GetHCState
                0x00000000       0x24 ..\obj\usb_hcd.o
 .text.HCD_HC_Init
                0x00000000       0x24 ..\obj\usb_hcd.o
 .text          0x00000000        0x0 ..\obj\usbh_msc_bot.o
 .data          0x00000000        0x0 ..\obj\usbh_msc_bot.o
 .text          0x00000000        0x0 ..\obj\usbh_ioreq.o
 .data          0x00000000        0x0 ..\obj\usbh_ioreq.o
 .bss           0x00000000        0x0 ..\obj\usbh_ioreq.o
 .text.USBH_InterruptReceiveData
                0x00000000       0xd0 ..\obj\usbh_ioreq.o
 .text.USBH_InterruptSendData
                0x00000000       0xd0 ..\obj\usbh_ioreq.o
 .text          0x00000000        0x0 ..\obj\misc.o
 .data          0x00000000        0x0 ..\obj\misc.o
 .bss           0x00000000        0x0 ..\obj\misc.o
 .text.NVIC_SetVectorTable
                0x00000000       0x2c ..\obj\misc.o
 .text.NVIC_SystemLPConfig
                0x00000000       0x54 ..\obj\misc.o
 .text.SysTick_CLKSourceConfig
                0x00000000       0x4c ..\obj\misc.o
 .text          0x00000000        0x0 ..\obj\usb_hcd_int.o
 .data          0x00000000        0x0 ..\obj\usb_hcd_int.o
 .bss           0x00000000        0x0 ..\obj\usb_hcd_int.o

Memory Configuration

Name             Origin             Length             Attributes
rom              0x08000000         0x00100000         xr
ram              0x20000000         0x00020000         xrw
ram1             0x10000000         0x00010000         xrw
*default*        0x00000000         0xffffffff

Linker script and memory map

                0x20020000                _eram = 0x20020000

.text           0x08000000     0x9ca0
 *(.isr_vector .isr_vector.*)
 .isr_vector    0x08000000      0x188 ..\obj\startup_stm32f4xx.o
                0x08000000                g_pfnVectors
 *(.text .text.* .gnu.linkonce.t.*)
 .text.USB_OTG_EnableCommonInt
                0x08000188       0x44 ..\obj\usb_core.o
 .text.USB_OTG_CoreReset
                0x080001cc       0xa8 ..\obj\usb_core.o
 .text.USB_OTG_WritePacket
                0x08000274       0x84 ..\obj\usb_core.o
                0x08000274                USB_OTG_WritePacket
 .text.USB_OTG_ReadPacket
                0x080002f8       0x68 ..\obj\usb_core.o
                0x080002f8                USB_OTG_ReadPacket
 .text.USB_OTG_SelectCore
                0x08000360      0x1b4 ..\obj\usb_core.o
                0x08000360                USB_OTG_SelectCore
 .text.USB_OTG_CoreInit
                0x08000514      0x1f8 ..\obj\usb_core.o
                0x08000514                USB_OTG_CoreInit
 .text.USB_OTG_EnableGlobalInt
                0x0800070c       0x3c ..\obj\usb_core.o
                0x0800070c                USB_OTG_EnableGlobalInt
 .text.USB_OTG_DisableGlobalInt
                0x08000748       0x40 ..\obj\usb_core.o
                0x08000748                USB_OTG_DisableGlobalInt
 .text.USB_OTG_FlushTxFifo
                0x08000788       0x80 ..\obj\usb_core.o
                0x08000788                USB_OTG_FlushTxFifo
 .text.USB_OTG_FlushRxFifo
                0x08000808       0x6c ..\obj\usb_core.o
                0x08000808                USB_OTG_FlushRxFifo
 .text.USB_OTG_SetCurrentMode
                0x08000874       0x64 ..\obj\usb_core.o
                0x08000874                USB_OTG_SetCurrentMode
 .text.USB_OTG_GetMode
                0x080008d8       0x20 ..\obj\usb_core.o
                0x080008d8                USB_OTG_GetMode
 .text.USB_OTG_IsHostMode
                0x080008f8       0x24 ..\obj\usb_core.o
                0x080008f8                USB_OTG_IsHostMode
 .text.USB_OTG_ReadCoreItr
                0x0800091c       0x30 ..\obj\usb_core.o
                0x0800091c                USB_OTG_ReadCoreItr
 .text.USB_OTG_CoreInitHost
                0x0800094c      0x124 ..\obj\usb_core.o
                0x0800094c                USB_OTG_CoreInitHost
 .text.USB_OTG_IsEvenFrame
                0x08000a70       0x28 ..\obj\usb_core.o
                0x08000a70                USB_OTG_IsEvenFrame
 .text.USB_OTG_DriveVbus
                0x08000a98       0x80 ..\obj\usb_core.o
                0x08000a98                USB_OTG_DriveVbus
 .text.USB_OTG_EnableHostInt
                0x08000b18       0x8c ..\obj\usb_core.o
                0x08000b18                USB_OTG_EnableHostInt
 .text.USB_OTG_InitFSLSPClkSel
                0x08000ba4       0x38 ..\obj\usb_core.o
                0x08000ba4                USB_OTG_InitFSLSPClkSel
 .text.USB_OTG_ReadHPRT0
                0x08000bdc       0x40 ..\obj\usb_core.o
                0x08000bdc                USB_OTG_ReadHPRT0
 .text.USB_OTG_ReadHostAllChannels_intr
                0x08000c1c       0x1c ..\obj\usb_core.o
                0x08000c1c                USB_OTG_ReadHostAllChannels_intr
 .text.USB_OTG_ResetPort
                0x08000c38       0x54 ..\obj\usb_core.o
                0x08000c38                USB_OTG_ResetPort
 .text.USB_OTG_HC_Init
                0x08000c8c      0x2d4 ..\obj\usb_core.o
                0x08000c8c                USB_OTG_HC_Init
 .text.USB_OTG_HC_StartXfer
                0x08000f60      0x308 ..\obj\usb_core.o
                0x08000f60                USB_OTG_HC_StartXfer
 .text.USB_OTG_HC_Halt
                0x08001268       0xac ..\obj\usb_core.o
                0x08001268                USB_OTG_HC_Halt
 .text.USB_OTG_HC_DoPing
                0x08001314       0x88 ..\obj\usb_core.o
                0x08001314                USB_OTG_HC_DoPing
 .text.UB_USB_MSC_HOST_Init
                0x0800139c       0x44 ..\obj\stm32_ub_usb_msc_host.o
                0x0800139c                UB_USB_MSC_HOST_Init
 .text.UB_USB_MSC_HOST_Do
                0x080013e0       0x34 ..\obj\stm32_ub_usb_msc_host.o
                0x080013e0                UB_USB_MSC_HOST_Do
 .text.USBH_Open_Channel
                0x08001414      0x108 ..\obj\usbh_hcs.o
                0x08001414                USBH_Open_Channel
 .text.USBH_Modify_Channel
                0x0800151c       0x9c ..\obj\usbh_hcs.o
                0x0800151c                USBH_Modify_Channel
 .text.USBH_Alloc_Channel
                0x080015b8       0x4c ..\obj\usbh_hcs.o
                0x080015b8                USBH_Alloc_Channel
 .text.USBH_Free_Channel
                0x08001604       0x4c ..\obj\usbh_hcs.o
                0x08001604                USBH_Free_Channel
 .text.USBH_DeAllocate_AllChannel
                0x08001650       0x44 ..\obj\usbh_hcs.o
                0x08001650                USBH_DeAllocate_AllChannel
 .text.USBH_GetFreeChannel
                0x08001694       0x54 ..\obj\usbh_hcs.o
 .text.USBH_Get_DevDesc
                0x080016e8       0x5c ..\obj\usbh_stdreq.o
                0x080016e8                USBH_Get_DevDesc
 .text.USBH_Get_CfgDesc
                0x08001744       0x60 ..\obj\usbh_stdreq.o
                0x08001744                USBH_Get_CfgDesc
 .text.USBH_Get_StringDesc
                0x080017a4       0x5c ..\obj\usbh_stdreq.o
                0x080017a4                USBH_Get_StringDesc
 .text.USBH_GetDescriptor
                0x08001800       0x64 ..\obj\usbh_stdreq.o
                0x08001800                USBH_GetDescriptor
 .text.USBH_SetAddress
                0x08001864       0x54 ..\obj\usbh_stdreq.o
                0x08001864                USBH_SetAddress
 .text.USBH_SetCfg
                0x080018b8       0x50 ..\obj\usbh_stdreq.o
                0x080018b8                USBH_SetCfg
 .text.USBH_ClrFeature
                0x08001908       0x84 ..\obj\usbh_stdreq.o
                0x08001908                USBH_ClrFeature
 .text.USBH_ParseDevDesc
                0x0800198c       0xf0 ..\obj\usbh_stdreq.o
 .text.USBH_ParseCfgDesc
                0x08001a7c      0x160 ..\obj\usbh_stdreq.o
 .text.USBH_ParseInterfaceDesc
                0x08001bdc       0x5c ..\obj\usbh_stdreq.o
 .text.USBH_ParseEPDesc
                0x08001c38       0x5c ..\obj\usbh_stdreq.o
 .text.USBH_ParseStringDesc
                0x08001c94       0x74 ..\obj\usbh_stdreq.o
 .text.USBH_GetNextDesc
                0x08001d08       0x34 ..\obj\usbh_stdreq.o
 .text.disk_initialize
                0x08001d3c       0x84 ..\obj\diskio.o
                0x08001d3c                disk_initialize
 .text.disk_status
                0x08001dc0       0x84 ..\obj\diskio.o
                0x08001dc0                disk_status
 .text.disk_read
                0x08001e44       0xa0 ..\obj\diskio.o
                0x08001e44                disk_read
 .text.disk_write
                0x08001ee4       0xa0 ..\obj\diskio.o
                0x08001ee4                disk_write
 .text.disk_ioctl
                0x08001f84       0x9c ..\obj\diskio.o
                0x08001f84                disk_ioctl
 .text.Default_Reset_Handler
                0x08002020       0x8c ..\obj\startup_stm32f4xx.o
                0x08002020                Default_Reset_Handler
                0x08002020                Reset_Handler
 .text.Default_Handler
                0x080020ac        0x8 ..\obj\startup_stm32f4xx.o
                0x080020ac                RTC_Alarm_IRQHandler
                0x080020ac                HASH_RNG_IRQHandler
                0x080020ac                EXTI2_IRQHandler
                0x080020ac                TIM8_CC_IRQHandler
                0x080020ac                DebugMon_Handler
                0x080020ac                TIM1_CC_IRQHandler
                0x080020ac                DMA2_Stream5_IRQHandler
                0x080020ac                HardFault_Handler
                0x080020ac                DMA1_Stream5_IRQHandler
                0x080020ac                SysTick_Handler
                0x080020ac                PVD_IRQHandler
                0x080020ac                SDIO_IRQHandler
                0x080020ac                TAMP_STAMP_IRQHandler
                0x080020ac                PendSV_Handler
                0x080020ac                NMI_Handler
                0x080020ac                CAN2_RX1_IRQHandler
                0x080020ac                EXTI3_IRQHandler
                0x080020ac                TIM8_TRG_COM_TIM14_IRQHandler
                0x080020ac                TIM1_UP_TIM10_IRQHandler
                0x080020ac                TIM8_UP_TIM13_IRQHandler
                0x080020ac                I2C3_ER_IRQHandler
                0x080020ac                EXTI0_IRQHandler
                0x080020ac                I2C2_EV_IRQHandler
                0x080020ac                DMA1_Stream2_IRQHandler
                0x080020ac                CAN1_RX0_IRQHandler
                0x080020ac                FPU_IRQHandler
                0x080020ac                OTG_HS_WKUP_IRQHandler
                0x080020ac                UsageFault_Handler
                0x080020ac                CAN2_SCE_IRQHandler
                0x080020ac                DMA2_Stream2_IRQHandler
                0x080020ac                SPI1_IRQHandler
                0x080020ac                TIM6_DAC_IRQHandler
                0x080020ac                TIM1_BRK_TIM9_IRQHandler
                0x080020ac                DCMI_IRQHandler
                0x080020ac                CAN2_RX0_IRQHandler
                0x080020ac                DMA2_Stream3_IRQHandler
                0x080020ac                USART6_IRQHandler
                0x080020ac                USART3_IRQHandler
                0x080020ac                CRYP_IRQHandler
                0x080020ac                CAN1_RX1_IRQHandler
                0x080020ac                UART5_IRQHandler
                0x080020ac                DMA2_Stream0_IRQHandler
                0x080020ac                TIM4_IRQHandler
                0x080020ac                I2C1_EV_IRQHandler
                0x080020ac                DMA1_Stream6_IRQHandler
                0x080020ac                DMA1_Stream1_IRQHandler
                0x080020ac                UART4_IRQHandler
                0x080020ac                TIM3_IRQHandler
                0x080020ac                RCC_IRQHandler
                0x080020ac                TIM8_BRK_TIM12_IRQHandler
                0x080020ac                EXTI15_10_IRQHandler
                0x080020ac                ADC_IRQHandler
                0x080020ac                DMA1_Stream7_IRQHandler
                0x080020ac                TIM7_IRQHandler
                0x080020ac                CAN2_TX_IRQHandler
                0x080020ac                TIM5_IRQHandler
                0x080020ac                DMA2_Stream7_IRQHandler
                0x080020ac                I2C3_EV_IRQHandler
                0x080020ac                EXTI9_5_IRQHandler
                0x080020ac                RTC_WKUP_IRQHandler
                0x080020ac                ETH_WKUP_IRQHandler
                0x080020ac                SPI2_IRQHandler
                0x080020ac                OTG_HS_EP1_IN_IRQHandler
                0x080020ac                MemManage_Handler
                0x080020ac                DMA1_Stream0_IRQHandler
                0x080020ac                CAN1_TX_IRQHandler
                0x080020ac                SVC_Handler
                0x080020ac                EXTI4_IRQHandler
                0x080020ac                FSMC_IRQHandler
                0x080020ac                ETH_IRQHandler
                0x080020ac                OTG_HS_EP1_OUT_IRQHandler
                0x080020ac                WWDG_IRQHandler
                0x080020ac                TIM2_IRQHandler
                0x080020ac                OTG_FS_WKUP_IRQHandler
                0x080020ac                TIM1_TRG_COM_TIM11_IRQHandler
                0x080020ac                OTG_HS_IRQHandler
                0x080020ac                EXTI1_IRQHandler
                0x080020ac                USART2_IRQHandler
                0x080020ac                I2C2_ER_IRQHandler
                0x080020ac                DMA2_Stream1_IRQHandler
                0x080020ac                CAN1_SCE_IRQHandler
                0x080020ac                FLASH_IRQHandler
                0x080020ac                DMA2_Stream4_IRQHandler
                0x080020ac                BusFault_Handler
                0x080020ac                USART1_IRQHandler
                0x080020ac                SPI3_IRQHandler
                0x080020ac                DMA1_Stream4_IRQHandler
                0x080020ac                I2C1_ER_IRQHandler
                0x080020ac                DMA2_Stream6_IRQHandler
                0x080020ac                DMA1_Stream3_IRQHandler
 .text.UB_Led_Init
                0x080020b4       0xe4 ..\obj\stm32_ub_led.o
                0x080020b4                UB_Led_Init
 .text.UB_Led_Off
                0x08002198       0x54 ..\obj\stm32_ub_led.o
                0x08002198                UB_Led_Off
 .text.UB_Led_On
                0x080021ec       0x54 ..\obj\stm32_ub_led.o
                0x080021ec                UB_Led_On
 .text.usuwanie_plikow
                0x08002240      0x128 ..\obj\main.o
                0x08002240                usuwanie_plikow
 .text.main     0x08002368        0xc ..\obj\main.o
                0x08002368                main
 .text.UB_Fatfs_Mount
                0x08002374       0x80 ..\obj\stm32_ub_fatfs.o
                0x08002374                UB_Fatfs_Mount
 .text.UB_Fatfs_UnMount
                0x080023f4       0x4c ..\obj\stm32_ub_fatfs.o
                0x080023f4                UB_Fatfs_UnMount
 .text.RCC_AHB1PeriphClockCmd
                0x08002440       0x54 ..\obj\stm32f4xx_rcc.o
                0x08002440                RCC_AHB1PeriphClockCmd
 .text.RCC_AHB2PeriphClockCmd
                0x08002494       0x54 ..\obj\stm32f4xx_rcc.o
                0x08002494                RCC_AHB2PeriphClockCmd
 .text.USBH_MSC_InterfaceInit
                0x080024e8      0x180 ..\obj\usbh_msc_core.o
 .text.USBH_MSC_InterfaceDeInit
                0x08002668       0x94 ..\obj\usbh_msc_core.o
 .text.USBH_MSC_ClassRequest
                0x080026fc       0x2c ..\obj\usbh_msc_core.o
 .text.USBH_MSC_Handle
                0x08002728      0x2f4 ..\obj\usbh_msc_core.o
 .text.USBH_MSC_BOTReset
                0x08002a1c       0x50 ..\obj\usbh_msc_core.o
 .text.USBH_MSC_GETMaxLUN
                0x08002a6c       0x50 ..\obj\usbh_msc_core.o
 .text.USBH_MSC_ErrorHandle
                0x08002abc       0x84 ..\obj\usbh_msc_core.o
                0x08002abc                USBH_MSC_ErrorHandle
 .text.USBH_Connect
                0x08002b40       0x30 ..\obj\usbh_core.o
                0x08002b40                USBH_Connect
 .text.USBH_Disconnect
                0x08002b70       0x30 ..\obj\usbh_core.o
                0x08002b70                USBH_Disconnect
 .text.USBH_Init
                0x08002ba0       0x7c ..\obj\usbh_core.o
                0x08002ba0                USBH_Init
 .text.USBH_DeInit
                0x08002c1c       0x74 ..\obj\usbh_core.o
                0x08002c1c                USBH_DeInit
 .text.USBH_Process
                0x08002c90      0x294 ..\obj\usbh_core.o
                0x08002c90                USBH_Process
 .text.USBH_ErrorHandle
                0x08002f24       0x4c ..\obj\usbh_core.o
                0x08002f24                USBH_ErrorHandle
 .text.USBH_HandleEnum
                0x08002f70      0x338 ..\obj\usbh_core.o
 .text.USBH_HandleControl
                0x080032a8      0x3ac ..\obj\usbh_core.o
                0x080032a8                USBH_HandleControl
 .text.MMC_disk_initialize
                0x08003654       0x1c ..\obj\stm32_ub_sdcard.o
                0x08003654                MMC_disk_initialize
 .text.MMC_disk_status
                0x08003670       0x1c ..\obj\stm32_ub_sdcard.o
                0x08003670                MMC_disk_status
 .text.MMC_disk_read
                0x0800368c       0x24 ..\obj\stm32_ub_sdcard.o
                0x0800368c                MMC_disk_read
 .text.MMC_disk_write
                0x080036b0       0x24 ..\obj\stm32_ub_sdcard.o
                0x080036b0                MMC_disk_write
 .text.MMC_disk_ioctl
                0x080036d4       0x20 ..\obj\stm32_ub_sdcard.o
                0x080036d4                MMC_disk_ioctl
 .text.GPIO_Init
                0x080036f4      0x144 ..\obj\stm32f4xx_gpio.o
                0x080036f4                GPIO_Init
 .text.GPIO_SetBits
                0x08003838       0x1c ..\obj\stm32f4xx_gpio.o
                0x08003838                GPIO_SetBits
 .text.GPIO_ResetBits
                0x08003854       0x1c ..\obj\stm32f4xx_gpio.o
                0x08003854                GPIO_ResetBits
 .text.GPIO_PinAFConfig
                0x08003870       0xa8 ..\obj\stm32f4xx_gpio.o
                0x08003870                GPIO_PinAFConfig
 .text.USB_disk_initialize
                0x08003918       0x48 ..\obj\stm32_ub_usbdisk.o
                0x08003918                USB_disk_initialize
 .text.USB_disk_status
                0x08003960       0x48 ..\obj\stm32_ub_usbdisk.o
                0x08003960                USB_disk_status
 .text.USB_disk_read
                0x080039a8       0xb0 ..\obj\stm32_ub_usbdisk.o
                0x080039a8                USB_disk_read
 .text.USB_disk_write
                0x08003a58       0xb0 ..\obj\stm32_ub_usbdisk.o
                0x08003a58                USB_disk_write
 .text.USB_disk_ioctl
                0x08003b08       0x7c ..\obj\stm32_ub_usbdisk.o
                0x08003b08                USB_disk_ioctl
 .text.USBH_MSC_TestUnitReady
                0x08003b84      0x17c ..\obj\usbh_msc_scsi.o
                0x08003b84                USBH_MSC_TestUnitReady
 .text.USBH_MSC_ReadCapacity10
                0x08003d00      0x1dc ..\obj\usbh_msc_scsi.o
                0x08003d00                USBH_MSC_ReadCapacity10
 .text.USBH_MSC_ModeSense6
                0x08003edc      0x1b8 ..\obj\usbh_msc_scsi.o
                0x08003edc                USBH_MSC_ModeSense6
 .text.USBH_MSC_RequestSense
                0x08004094      0x1e4 ..\obj\usbh_msc_scsi.o
                0x08004094                USBH_MSC_RequestSense
 .text.USBH_MSC_Write10
                0x08004278      0x1b4 ..\obj\usbh_msc_scsi.o
                0x08004278                USBH_MSC_Write10
 .text.USBH_MSC_Read10
                0x0800442c      0x1f4 ..\obj\usbh_msc_scsi.o
                0x0800442c                USBH_MSC_Read10
 .text.SystemInit
                0x08004620       0x94 ..\obj\system_stm32f4xx.o
                0x08004620                SystemInit
 .text.SetSysClock
                0x080046b4      0x188 ..\obj\system_stm32f4xx.o
 .text.USBH_USR_Init
                0x0800483c        0xc ..\obj\usbh_usr.o
                0x0800483c                USBH_USR_Init
 .text.USBH_USR_DeviceAttached
                0x08004848       0x18 ..\obj\usbh_usr.o
                0x08004848                USBH_USR_DeviceAttached
 .text.USBH_USR_UnrecoveredError
                0x08004860       0x18 ..\obj\usbh_usr.o
                0x08004860                USBH_USR_UnrecoveredError
 .text.USBH_USR_DeviceDisconnected
                0x08004878       0x18 ..\obj\usbh_usr.o
                0x08004878                USBH_USR_DeviceDisconnected
 .text.USBH_USR_ResetDevice
                0x08004890        0xc ..\obj\usbh_usr.o
                0x08004890                USBH_USR_ResetDevice
 .text.USBH_USR_DeviceSpeedDetected
                0x0800489c       0x30 ..\obj\usbh_usr.o
                0x0800489c                USBH_USR_DeviceSpeedDetected
 .text.USBH_USR_Device_DescAvailable
                0x080048cc       0x14 ..\obj\usbh_usr.o
                0x080048cc                USBH_USR_Device_DescAvailable
 .text.USBH_USR_DeviceAddressAssigned
                0x080048e0        0xc ..\obj\usbh_usr.o
                0x080048e0                USBH_USR_DeviceAddressAssigned
 .text.USBH_USR_Configuration_DescAvailable
                0x080048ec       0x18 ..\obj\usbh_usr.o
                0x080048ec                USBH_USR_Configuration_DescAvailable
 .text.USBH_USR_Manufacturer_String
                0x08004904       0x14 ..\obj\usbh_usr.o
                0x08004904                USBH_USR_Manufacturer_String
 .text.USBH_USR_Product_String
                0x08004918       0x14 ..\obj\usbh_usr.o
                0x08004918                USBH_USR_Product_String
 .text.USBH_USR_SerialNum_String
                0x0800492c       0x14 ..\obj\usbh_usr.o
                0x0800492c                USBH_USR_SerialNum_String
 .text.USBH_USR_EnumerationDone
                0x08004940        0xc ..\obj\usbh_usr.o
                0x08004940                USBH_USR_EnumerationDone
 .text.USBH_USR_DeviceNotSupported
                0x0800494c       0x18 ..\obj\usbh_usr.o
                0x0800494c                USBH_USR_DeviceNotSupported
 .text.USBH_USR_UserInput
                0x08004964       0x10 ..\obj\usbh_usr.o
                0x08004964                USBH_USR_UserInput
 .text.USBH_USR_OverCurrentDetected
                0x08004974       0x18 ..\obj\usbh_usr.o
                0x08004974                USBH_USR_OverCurrentDetected
 .text.USBH_USR_MSC_Application
                0x0800498c       0x64 ..\obj\usbh_usr.o
                0x0800498c                USBH_USR_MSC_Application
 .text.USBH_USR_DeInit
                0x080049f0       0x18 ..\obj\usbh_usr.o
                0x080049f0                USBH_USR_DeInit
 .text.ff_convert
                0x08004a08       0x88 ..\obj\ccsbcs.o
                0x08004a08                ff_convert
 .text.ff_wtoupper
                0x08004a90       0x70 ..\obj\ccsbcs.o
                0x08004a90                ff_wtoupper
 .text.USB_OTG_BSP_Init
                0x08004b00       0xd4 ..\obj\usb_bsp.o
                0x08004b00                USB_OTG_BSP_Init
 .text.USB_OTG_BSP_EnableInterrupt
                0x08004bd4       0x3c ..\obj\usb_bsp.o
                0x08004bd4                USB_OTG_BSP_EnableInterrupt
 .text.USB_OTG_BSP_DriveVBUS
                0x08004c10       0x3c ..\obj\usb_bsp.o
                0x08004c10                USB_OTG_BSP_DriveVBUS
 .text.USB_OTG_BSP_ConfigVBUS
                0x08004c4c       0x64 ..\obj\usb_bsp.o
                0x08004c4c                USB_OTG_BSP_ConfigVBUS
 .text.USB_OTG_BSP_uDelay
                0x08004cb0       0x58 ..\obj\usb_bsp.o
                0x08004cb0                USB_OTG_BSP_uDelay
 .text.USB_OTG_BSP_mDelay
                0x08004d08       0x20 ..\obj\usb_bsp.o
                0x08004d08                USB_OTG_BSP_mDelay
 .text.OTG_FS_IRQHandler
                0x08004d28       0x14 ..\obj\usb_bsp.o
                0x08004d28                OTG_FS_IRQHandler
 .text.ATA_disk_initialize
                0x08004d3c       0x1c ..\obj\stm32_ub_atadrive.o
                0x08004d3c                ATA_disk_initialize
 .text.ATA_disk_status
                0x08004d58       0x1c ..\obj\stm32_ub_atadrive.o
                0x08004d58                ATA_disk_status
 .text.ATA_disk_read
                0x08004d74       0x24 ..\obj\stm32_ub_atadrive.o
                0x08004d74                ATA_disk_read
 .text.ATA_disk_write
                0x08004d98       0x24 ..\obj\stm32_ub_atadrive.o
                0x08004d98                ATA_disk_write
 .text.ATA_disk_ioctl
                0x08004dbc       0x20 ..\obj\stm32_ub_atadrive.o
                0x08004dbc                ATA_disk_ioctl
 .text.mem_cpy  0x08004ddc       0x50 ..\obj\ff.o
 .text.mem_set  0x08004e2c       0x44 ..\obj\ff.o
 .text.mem_cmp  0x08004e70       0x70 ..\obj\ff.o
 .text.chk_chr  0x08004ee0       0x38 ..\obj\ff.o
 .text.sync_window
                0x08004f18       0xa4 ..\obj\ff.o
 .text.move_window
                0x08004fbc       0x60 ..\obj\ff.o
 .text.sync_fs  0x0800501c      0x17c ..\obj\ff.o
 .text.clust2sect
                0x08005198       0x44 ..\obj\ff.o
                0x08005198                clust2sect
 .text.get_fat  0x080051dc      0x1a4 ..\obj\ff.o
                0x080051dc                get_fat
 .text.put_fat  0x08005380      0x268 ..\obj\ff.o
                0x08005380                put_fat
 .text.remove_chain
                0x080055e8       0xb0 ..\obj\ff.o
 .text.create_chain
                0x08005698      0x12c ..\obj\ff.o
 .text.dir_sdi  0x080057c4      0x11c ..\obj\ff.o
 .text.dir_next
                0x080058e0      0x1d8 ..\obj\ff.o
 .text.ld_clust
                0x08005ab8       0x64 ..\obj\ff.o
 .text.cmp_lfn  0x08005b1c      0x100 ..\obj\ff.o
 .text.pick_lfn
                0x08005c1c       0xf0 ..\obj\ff.o
 .text.sum_sfn  0x08005d0c       0x50 ..\obj\ff.o
 .text.dir_find
                0x08005d5c      0x170 ..\obj\ff.o
 .text.dir_read
                0x08005ecc      0x150 ..\obj\ff.o
 .text.dir_remove
                0x0800601c       0xa0 ..\obj\ff.o
 .text.create_name
                0x080060bc      0x3c4 ..\obj\ff.o
 .text.get_fileinfo
                0x08006480      0x234 ..\obj\ff.o
 .text.follow_path
                0x080066b4       0xe4 ..\obj\ff.o
 .text.check_fs
                0x08006798       0xe8 ..\obj\ff.o
 .text.chk_mounted
                0x08006880      0x60c ..\obj\ff.o
 .text.validate
                0x08006e8c       0x64 ..\obj\ff.o
 .text.f_mount  0x08006ef0       0x64 ..\obj\ff.o
                0x08006ef0                f_mount
 .text.f_opendir
                0x08006f54       0xe0 ..\obj\ff.o
                0x08006f54                f_opendir
 .text.f_readdir
                0x08007034       0xa4 ..\obj\ff.o
                0x08007034                f_readdir
 .text.f_getfree
                0x080070d8      0x1c4 ..\obj\ff.o
                0x080070d8                f_getfree
 .text.f_unlink
                0x0800729c      0x17c ..\obj\ff.o
                0x0800729c                f_unlink
 .text.HCD_Init
                0x08007418       0xa8 ..\obj\usb_hcd.o
                0x08007418                HCD_Init
 .text.HCD_GetCurrentSpeed
                0x080074c0       0x28 ..\obj\usb_hcd.o
                0x080074c0                HCD_GetCurrentSpeed
 .text.HCD_ResetPort
                0x080074e8       0x1c ..\obj\usb_hcd.o
                0x080074e8                HCD_ResetPort
 .text.HCD_IsDeviceConnected
                0x08007504       0x1c ..\obj\usb_hcd.o
                0x08007504                HCD_IsDeviceConnected
 .text.HCD_GetCurrentFrame
                0x08007520       0x24 ..\obj\usb_hcd.o
                0x08007520                HCD_GetCurrentFrame
 .text.HCD_GetURB_State
                0x08007544       0x24 ..\obj\usb_hcd.o
                0x08007544                HCD_GetURB_State
 .text.HCD_GetXferCnt
                0x08007568       0x24 ..\obj\usb_hcd.o
                0x08007568                HCD_GetXferCnt
 .text.HCD_SubmitRequest
                0x0800758c       0x44 ..\obj\usb_hcd.o
                0x0800758c                HCD_SubmitRequest
 .text.USBH_MSC_Init
                0x080075d0       0x78 ..\obj\usbh_msc_bot.o
                0x080075d0                USBH_MSC_Init
 .text.USBH_MSC_HandleBOTXfer
                0x08007648      0x5e4 ..\obj\usbh_msc_bot.o
                0x08007648                USBH_MSC_HandleBOTXfer
 .text.USBH_MSC_BOT_Abort
                0x08007c2c       0xa0 ..\obj\usbh_msc_bot.o
                0x08007c2c                USBH_MSC_BOT_Abort
 .text.USBH_MSC_DecodeCSW
                0x08007ccc       0xd4 ..\obj\usbh_msc_bot.o
                0x08007ccc                USBH_MSC_DecodeCSW
 .text.USBH_CtlReq
                0x08007da0       0xa8 ..\obj\usbh_ioreq.o
                0x08007da0                USBH_CtlReq
 .text.USBH_CtlSendSetup
                0x08007e48       0x7c ..\obj\usbh_ioreq.o
                0x08007e48                USBH_CtlSendSetup
 .text.USBH_CtlSendData
                0x08007ec4       0xc4 ..\obj\usbh_ioreq.o
                0x08007ec4                USBH_CtlSendData
 .text.USBH_CtlReceiveData
                0x08007f88       0x7c ..\obj\usbh_ioreq.o
                0x08007f88                USBH_CtlReceiveData
 .text.USBH_BulkSendData
                0x08008004       0xa8 ..\obj\usbh_ioreq.o
                0x08008004                USBH_BulkSendData
 .text.USBH_BulkReceiveData
                0x080080ac       0xa8 ..\obj\usbh_ioreq.o
                0x080080ac                USBH_BulkReceiveData
 .text.USBH_SubmitSetupRequest
                0x08008154       0x44 ..\obj\usbh_ioreq.o
 .text.NVIC_PriorityGroupConfig
                0x08008198       0x28 ..\obj\misc.o
                0x08008198                NVIC_PriorityGroupConfig
 .text.NVIC_Init
                0x080081c0       0xe4 ..\obj\misc.o
                0x080081c0                NVIC_Init
 .text.USBH_OTG_ISR_Handler
                0x080082a4      0x114 ..\obj\usb_hcd_int.o
                0x080082a4                USBH_OTG_ISR_Handler
 .text.USB_OTG_USBH_handle_hc_ISR
                0x080083b8       0x9c ..\obj\usb_hcd_int.o
 .text.USB_OTG_USBH_handle_sof_ISR
                0x08008454       0x30 ..\obj\usb_hcd_int.o
 .text.USB_OTG_USBH_handle_Disconnect_ISR
                0x08008484       0x44 ..\obj\usb_hcd_int.o
 .text.USB_OTG_USBH_handle_nptxfempty_ISR
                0x080084c8      0x1b0 ..\obj\usb_hcd_int.o
 .text.USB_OTG_USBH_handle_ptxfempty_ISR
                0x08008678      0x1b0 ..\obj\usb_hcd_int.o
 .text.USB_OTG_USBH_handle_port_ISR
                0x08008828      0x180 ..\obj\usb_hcd_int.o
 .text.USB_OTG_USBH_handle_hc_n_Out_ISR
                0x080089a8      0x560 ..\obj\usb_hcd_int.o
 .text.USB_OTG_USBH_handle_hc_n_In_ISR
                0x08008f08      0x60c ..\obj\usb_hcd_int.o
 .text.USB_OTG_USBH_handle_rx_qlvl_ISR
                0x08009514      0x1c8 ..\obj\usb_hcd_int.o
 .text.USB_OTG_USBH_handle_IncompletePeriodicXfer_ISR
                0x080096dc       0x54 ..\obj\usb_hcd_int.o
 *(.glue_7t)
 .glue_7t       0x00000000        0x0 linker stubs
 *(.glue_7)
 .glue_7        0x00000000        0x0 linker stubs
 *(.rodata .rodata* .gnu.linkonce.r.*)
 .rodata        0x08009730        0x4 ..\obj\main.o
 .rodata        0x08009734        0x4 ..\obj\stm32_ub_fatfs.o
 .rodata        0x08009738        0x4 ..\obj\usbh_core.o
 .rodata        0x0800973c      0x4c0 ..\obj\ccsbcs.o
 .rodata        0x08009bfc       0xa4 ..\obj\ff.o

.vfp11_veneer   0x08009ca0        0x0
 .vfp11_veneer  0x00000000        0x0 linker stubs

.v4_bx          0x08009ca0        0x0
 .v4_bx         0x00000000        0x0 linker stubs

.iplt           0x08009ca0        0x0
 .iplt          0x00000000        0x0 ..\obj\usb_core.o

.rel.dyn        0x08009ca0        0x0
 .rel.iplt      0x00000000        0x0 ..\obj\usb_core.o

.ARM.extab
 *(.ARM.extab* .gnu.linkonce.armextab.*)
                0x08009ca0                __exidx_start = .

.ARM.exidx
 *(.ARM.exidx* .gnu.linkonce.armexidx.*)
                0x08009ca0                __exidx_end = .
                0x08009ca0                . = ALIGN (0x4)
                0x08009ca0                _etext = .
                0x08009ca0                _sidata = .

.data           0x20000000       0xb8 load address 0x08009ca0
                0x20000000                _sdata = .
 *(.data .data.*)
 .data          0x20000000       0x50 ..\obj\stm32_ub_led.o
                0x20000000                LED
 .data          0x20000050       0x10 ..\obj\usbh_msc_core.o
                0x20000050                USBH_MSC_cb
 .data          0x20000060        0xc ..\obj\usbh_core.o
                0x20000060                USBH_DeviceConnStatus_cb
 .data          0x2000006c        0x1 ..\obj\usbh_msc_scsi.o
 *fill*         0x2000006d        0x3 00
 .data          0x20000070       0x48 ..\obj\usbh_usr.o
                0x20000070                USR_Callbacks
                0x200000b8                . = ALIGN (0x4)
                0x200000b8                _edata = .

.igot.plt       0x200000b8        0x0 load address 0x08009d58
 .igot.plt      0x00000000        0x0 ..\obj\usb_core.o

.stack          0x200000b8     0x2000 load address 0x08009d58
 .stack         0x200000b8     0x2000 ..\obj\startup_stm32f4xx.o
                0x200000b8                pulStack

.heap           0x200020b8    0x10000 load address 0x0800bd58
 .heap          0x200020b8    0x10000 ..\obj\startup_stm32f4xx.o
                0x200020b8                pulHeap

.bss            0x200120b8      0xe30 load address 0x0801bd58
                0x200120b8                _sbss = .
 *(.bss .bss.*)
 .bss           0x200120b8      0x234 ..\obj\stm32_ub_fatfs.o
 .bss           0x200122ec        0x2 ..\obj\usbh_msc_core.o
                0x200122ec                MSCErrorCount
 .bss           0x200122ee        0x2 ..\obj\usbh_core.o
 .bss           0x200122f0        0x1 ..\obj\usbh_usr.o
 *fill*         0x200122f1        0x3 00
 .bss           0x200122f4      0x208 ..\obj\ff.o
 .bss           0x200124fc       0x10 ..\obj\usbh_msc_bot.o
 *(COMMON)
 COMMON         0x2001250c      0x538 ..\obj\stm32_ub_usb_msc_host.o
                0x2001250c                USB_MSC_HOST_STATUS
                0x20012510                USB_OTG_Core
                0x200129c0                USB_Host
 COMMON         0x20012a44       0x54 ..\obj\usbh_msc_core.o
                0x20012a44                MSC_Machine
                0x20012a90                MSC_Setup
 COMMON         0x20012a98      0x410 ..\obj\usbh_msc_scsi.o
                0x20012a98                USBH_DataInBuffer
                0x20012c98                USBH_MSC_Param
                0x20012ca8                USBH_DataOutBuffer
 COMMON         0x20012ea8       0x40 ..\obj\usbh_msc_bot.o
                0x20012ea8                USBH_MSC_CSWData
                0x20012eb8                USBH_MSC_BOTXferParam
                0x20012ec8                USBH_MSC_CBWData
                0x20012ee8                . = ALIGN (0x4)
                0x20012ee8                _ebss = .

.co_stack       0x20012ee8        0x0
                0x20012ee8                . = ALIGN (0x8)
 *(.co_stack .co_stack.*)
                0x20012ee8                . = ALIGN (0x4)
                0x20012ee8                _end = .
LOAD ..\obj\usb_core.o
LOAD ..\obj\stm32_ub_usb_msc_host.o
LOAD ..\obj\usbh_hcs.o
LOAD ..\obj\usbh_stdreq.o
LOAD ..\obj\diskio.o
LOAD ..\obj\startup_stm32f4xx.o
LOAD ..\obj\stm32_ub_led.o
LOAD ..\obj\main.o
LOAD ..\obj\stm32_ub_fatfs.o
LOAD ..\obj\stm32f4xx_rcc.o
LOAD ..\obj\usbh_msc_core.o
LOAD ..\obj\usbh_core.o
LOAD ..\obj\stm32_ub_sdcard.o
LOAD ..\obj\stm32f4xx_gpio.o
LOAD ..\obj\stm32_ub_usbdisk.o
LOAD ..\obj\usbh_msc_scsi.o
LOAD ..\obj\system_stm32f4xx.o
LOAD ..\obj\usbh_usr.o
LOAD ..\obj\ccsbcs.o
LOAD ..\obj\usb_bsp.o
LOAD ..\obj\stm32_ub_atadrive.o
LOAD ..\obj\ff.o
LOAD ..\obj\usb_hcd.o
LOAD ..\obj\usbh_msc_bot.o
LOAD ..\obj\usbh_ioreq.o
LOAD ..\obj\misc.o
LOAD ..\obj\usb_hcd_int.o
START GROUP
LOAD d:/stm32_discovery/sterowniki/gnu tools arm embedded/4.7 2013q3/bin/../lib/gcc/arm-none-eabi/4.7.4/armv7e-m\libgcc.a
LOAD d:/stm32_discovery/sterowniki/gnu tools arm embedded/4.7 2013q3/bin/../lib/gcc/arm-none-eabi/4.7.4/../../../../arm-none-eabi/lib/armv7e-m\libg.a
LOAD d:/stm32_discovery/sterowniki/gnu tools arm embedded/4.7 2013q3/bin/../lib/gcc/arm-none-eabi/4.7.4/../../../../arm-none-eabi/lib/armv7e-m\libc.a
END GROUP
OUTPUT(STM32F4_PenDriveProject_KWPS.elf elf32-littlearm)

.debug_info     0x00000000    0x17d61
 .debug_info    0x00000000     0x22d0 ..\obj\usb_core.o
 .debug_info    0x000022d0     0x1457 ..\obj\stm32_ub_usb_msc_host.o
 .debug_info    0x00003727      0xc23 ..\obj\usbh_hcs.o
 .debug_info    0x0000434a     0x1880 ..\obj\usbh_stdreq.o
 .debug_info    0x00005bca      0x350 ..\obj\diskio.o
 .debug_info    0x00005f1a      0x180 ..\obj\startup_stm32f4xx.o
 .debug_info    0x0000609a      0x441 ..\obj\stm32_ub_led.o
 .debug_info    0x000064db      0x56b ..\obj\main.o
 .debug_info    0x00006a46      0x8c7 ..\obj\stm32_ub_fatfs.o
 .debug_info    0x0000730d      0xd49 ..\obj\stm32f4xx_rcc.o
 .debug_info    0x00008056     0x1785 ..\obj\usbh_msc_core.o
 .debug_info    0x000097db     0x162a ..\obj\usbh_core.o
 .debug_info    0x0000ae05      0x260 ..\obj\stm32_ub_sdcard.o
 .debug_info    0x0000b065      0x640 ..\obj\stm32f4xx_gpio.o
 .debug_info    0x0000b6a5     0x166f ..\obj\stm32_ub_usbdisk.o
 .debug_info    0x0000cd14      0xf9e ..\obj\usbh_msc_scsi.o
 .debug_info    0x0000dcb2      0x604 ..\obj\system_stm32f4xx.o
 .debug_info    0x0000e2b6      0x6fd ..\obj\usbh_usr.o
 .debug_info    0x0000e9b3      0x167 ..\obj\ccsbcs.o
 .debug_info    0x0000eb1a     0x1019 ..\obj\usb_bsp.o
 .debug_info    0x0000fb33      0x260 ..\obj\stm32_ub_atadrive.o
 .debug_info    0x0000fd93     0x1eb7 ..\obj\ff.o
 .debug_info    0x00011c4a      0xda9 ..\obj\usb_hcd.o
 .debug_info    0x000129f3     0x181b ..\obj\usbh_msc_bot.o
 .debug_info    0x0001420e     0x168d ..\obj\usbh_ioreq.o
 .debug_info    0x0001589b      0x592 ..\obj\misc.o
 .debug_info    0x00015e2d     0x1f34 ..\obj\usb_hcd_int.o

.debug_abbrev   0x00000000     0x296f
 .debug_abbrev  0x00000000      0x2c8 ..\obj\usb_core.o
 .debug_abbrev  0x000002c8      0x17c ..\obj\stm32_ub_usb_msc_host.o
 .debug_abbrev  0x00000444      0x161 ..\obj\usbh_hcs.o
 .debug_abbrev  0x000005a5      0x229 ..\obj\usbh_stdreq.o
 .debug_abbrev  0x000007ce      0x14a ..\obj\diskio.o
 .debug_abbrev  0x00000918       0xe2 ..\obj\startup_stm32f4xx.o
 .debug_abbrev  0x000009fa      0x14b ..\obj\stm32_ub_led.o
 .debug_abbrev  0x00000b45      0x133 ..\obj\main.o
 .debug_abbrev  0x00000c78      0x1a7 ..\obj\stm32_ub_fatfs.o
 .debug_abbrev  0x00000e1f      0x1e5 ..\obj\stm32f4xx_rcc.o
 .debug_abbrev  0x00001004      0x1f5 ..\obj\usbh_msc_core.o
 .debug_abbrev  0x000011f9      0x213 ..\obj\usbh_core.o
 .debug_abbrev  0x0000140c       0xc7 ..\obj\stm32_ub_sdcard.o
 .debug_abbrev  0x000014d3      0x1a5 ..\obj\stm32f4xx_gpio.o
 .debug_abbrev  0x00001678      0x1ce ..\obj\stm32_ub_usbdisk.o
 .debug_abbrev  0x00001846      0x18e ..\obj\usbh_msc_scsi.o
 .debug_abbrev  0x000019d4      0x138 ..\obj\system_stm32f4xx.o
 .debug_abbrev  0x00001b0c      0x141 ..\obj\usbh_usr.o
 .debug_abbrev  0x00001c4d       0x99 ..\obj\ccsbcs.o
 .debug_abbrev  0x00001ce6      0x1c9 ..\obj\usb_bsp.o
 .debug_abbrev  0x00001eaf       0xc7 ..\obj\stm32_ub_atadrive.o
 .debug_abbrev  0x00001f76      0x1e7 ..\obj\ff.o
 .debug_abbrev  0x0000215d      0x183 ..\obj\usb_hcd.o
 .debug_abbrev  0x000022e0      0x1c7 ..\obj\usbh_msc_bot.o
 .debug_abbrev  0x000024a7      0x17a ..\obj\usbh_ioreq.o
 .debug_abbrev  0x00002621      0x129 ..\obj\misc.o
 .debug_abbrev  0x0000274a      0x225 ..\obj\usb_hcd_int.o

.debug_loc      0x00000000     0x4064
 .debug_loc     0x00000000      0x658 ..\obj\usb_core.o
 .debug_loc     0x00000658       0x64 ..\obj\stm32_ub_usb_msc_host.o
 .debug_loc     0x000006bc      0x150 ..\obj\usbh_hcs.o
 .debug_loc     0x0000080c      0x2d8 ..\obj\usbh_stdreq.o
 .debug_loc     0x00000ae4      0x144 ..\obj\diskio.o
 .debug_loc     0x00000c28       0x64 ..\obj\startup_stm32f4xx.o
 .debug_loc     0x00000c8c      0x118 ..\obj\stm32_ub_led.o
 .debug_loc     0x00000da4       0x66 ..\obj\main.o
 .debug_loc     0x00000e0a      0x294 ..\obj\stm32_ub_fatfs.o
 .debug_loc     0x0000109e      0x97c ..\obj\stm32f4xx_rcc.o
 .debug_loc     0x00001a1a      0x188 ..\obj\usbh_msc_core.o
 .debug_loc     0x00001ba2      0x1c2 ..\obj\usbh_core.o
 .debug_loc     0x00001d64      0x17c ..\obj\stm32_ub_sdcard.o
 .debug_loc     0x00001ee0      0x310 ..\obj\stm32f4xx_gpio.o
 .debug_loc     0x000021f0      0x17c ..\obj\stm32_ub_usbdisk.o
 .debug_loc     0x0000236c      0x150 ..\obj\usbh_msc_scsi.o
 .debug_loc     0x000024bc       0x9c ..\obj\system_stm32f4xx.o
 .debug_loc     0x00002558      0x360 ..\obj\usbh_usr.o
 .debug_loc     0x000028b8       0x70 ..\obj\ccsbcs.o
 .debug_loc     0x00002928      0x17c ..\obj\usb_bsp.o
 .debug_loc     0x00002aa4      0x17c ..\obj\stm32_ub_atadrive.o
 .debug_loc     0x00002c20      0xbb8 ..\obj\ff.o
 .debug_loc     0x000037d8      0x230 ..\obj\usb_hcd.o
 .debug_loc     0x00003a08       0xe0 ..\obj\usbh_msc_bot.o
 .debug_loc     0x00003ae8      0x1f8 ..\obj\usbh_ioreq.o
 .debug_loc     0x00003ce0      0x118 ..\obj\misc.o
 .debug_loc     0x00003df8      0x26c ..\obj\usb_hcd_int.o

.debug_aranges  0x00000000      0xbe0
 .debug_aranges
                0x00000000      0x100 ..\obj\usb_core.o
 .debug_aranges
                0x00000100       0x28 ..\obj\stm32_ub_usb_msc_host.o
 .debug_aranges
                0x00000128       0x48 ..\obj\usbh_hcs.o
 .debug_aranges
                0x00000170       0x80 ..\obj\usbh_stdreq.o
 .debug_aranges
                0x000001f0       0x48 ..\obj\diskio.o
 .debug_aranges
                0x00000238       0x28 ..\obj\startup_stm32f4xx.o
 .debug_aranges
                0x00000260       0x40 ..\obj\stm32_ub_led.o
 .debug_aranges
                0x000002a0       0x28 ..\obj\main.o
 .debug_aranges
                0x000002c8       0x78 ..\obj\stm32_ub_fatfs.o
 .debug_aranges
                0x00000340      0x178 ..\obj\stm32f4xx_rcc.o
 .debug_aranges
                0x000004b8       0x50 ..\obj\usbh_msc_core.o
 .debug_aranges
                0x00000508       0x58 ..\obj\usbh_core.o
 .debug_aranges
                0x00000560       0x50 ..\obj\stm32_ub_sdcard.o
 .debug_aranges
                0x000005b0       0x88 ..\obj\stm32f4xx_gpio.o
 .debug_aranges
                0x00000638       0x50 ..\obj\stm32_ub_usbdisk.o
 .debug_aranges
                0x00000688       0x48 ..\obj\usbh_msc_scsi.o
 .debug_aranges
                0x000006d0       0x30 ..\obj\system_stm32f4xx.o
 .debug_aranges
                0x00000700       0xa8 ..\obj\usbh_usr.o
 .debug_aranges
                0x000007a8       0x28 ..\obj\ccsbcs.o
 .debug_aranges
                0x000007d0       0x50 ..\obj\usb_bsp.o
 .debug_aranges
                0x00000820       0x50 ..\obj\stm32_ub_atadrive.o
 .debug_aranges
                0x00000870      0x1c0 ..\obj\ff.o
 .debug_aranges
                0x00000a30       0x68 ..\obj\usb_hcd.o
 .debug_aranges
                0x00000a98       0x38 ..\obj\usbh_msc_bot.o
 .debug_aranges
                0x00000ad0       0x60 ..\obj\usbh_ioreq.o
 .debug_aranges
                0x00000b30       0x40 ..\obj\misc.o
 .debug_aranges
                0x00000b70       0x70 ..\obj\usb_hcd_int.o

.debug_ranges   0x00000000      0xa30
 .debug_ranges  0x00000000       0xf0 ..\obj\usb_core.o
 .debug_ranges  0x000000f0       0x18 ..\obj\stm32_ub_usb_msc_host.o
 .debug_ranges  0x00000108       0x38 ..\obj\usbh_hcs.o
 .debug_ranges  0x00000140       0x70 ..\obj\usbh_stdreq.o
 .debug_ranges  0x000001b0       0x38 ..\obj\diskio.o
 .debug_ranges  0x000001e8       0x18 ..\obj\startup_stm32f4xx.o
 .debug_ranges  0x00000200       0x30 ..\obj\stm32_ub_led.o
 .debug_ranges  0x00000230       0x18 ..\obj\main.o
 .debug_ranges  0x00000248       0x68 ..\obj\stm32_ub_fatfs.o
 .debug_ranges  0x000002b0      0x168 ..\obj\stm32f4xx_rcc.o
 .debug_ranges  0x00000418       0x40 ..\obj\usbh_msc_core.o
 .debug_ranges  0x00000458       0x48 ..\obj\usbh_core.o
 .debug_ranges  0x000004a0       0x40 ..\obj\stm32_ub_sdcard.o
 .debug_ranges  0x000004e0       0x78 ..\obj\stm32f4xx_gpio.o
 .debug_ranges  0x00000558       0x40 ..\obj\stm32_ub_usbdisk.o
 .debug_ranges  0x00000598       0x38 ..\obj\usbh_msc_scsi.o
 .debug_ranges  0x000005d0       0x20 ..\obj\system_stm32f4xx.o
 .debug_ranges  0x000005f0       0x98 ..\obj\usbh_usr.o
 .debug_ranges  0x00000688       0x18 ..\obj\ccsbcs.o
 .debug_ranges  0x000006a0       0x40 ..\obj\usb_bsp.o
 .debug_ranges  0x000006e0       0x40 ..\obj\stm32_ub_atadrive.o
 .debug_ranges  0x00000720      0x1b0 ..\obj\ff.o
 .debug_ranges  0x000008d0       0x58 ..\obj\usb_hcd.o
 .debug_ranges  0x00000928       0x28 ..\obj\usbh_msc_bot.o
 .debug_ranges  0x00000950       0x50 ..\obj\usbh_ioreq.o
 .debug_ranges  0x000009a0       0x30 ..\obj\misc.o
 .debug_ranges  0x000009d0       0x60 ..\obj\usb_hcd_int.o

.debug_line     0x00000000     0x6131
 .debug_line    0x00000000      0x600 ..\obj\usb_core.o
 .debug_line    0x00000600      0x276 ..\obj\stm32_ub_usb_msc_host.o
 .debug_line    0x00000876      0x24d ..\obj\usbh_hcs.o
 .debug_line    0x00000ac3      0x386 ..\obj\usbh_stdreq.o
 .debug_line    0x00000e49      0x29a ..\obj\diskio.o
 .debug_line    0x000010e3      0x1ab ..\obj\startup_stm32f4xx.o
 .debug_line    0x0000128e      0x2b0 ..\obj\stm32_ub_led.o
 .debug_line    0x0000153e      0x2bc ..\obj\main.o
 .debug_line    0x000017fa      0x37e ..\obj\stm32_ub_fatfs.o
 .debug_line    0x00001b78      0x5e1 ..\obj\stm32f4xx_rcc.o
 .debug_line    0x00002159      0x309 ..\obj\usbh_msc_core.o
 .debug_line    0x00002462      0x3e3 ..\obj\usbh_core.o
 .debug_line    0x00002845      0x252 ..\obj\stm32_ub_sdcard.o
 .debug_line    0x00002a97      0x385 ..\obj\stm32f4xx_gpio.o
 .debug_line    0x00002e1c      0x3bd ..\obj\stm32_ub_usbdisk.o
 .debug_line    0x000031d9      0x394 ..\obj\usbh_msc_scsi.o
 .debug_line    0x0000356d      0x1f9 ..\obj\system_stm32f4xx.o
 .debug_line    0x00003766      0x34f ..\obj\usbh_usr.o
 .debug_line    0x00003ab5      0x147 ..\obj\ccsbcs.o
 .debug_line    0x00003bfc      0x2fd ..\obj\usb_bsp.o
 .debug_line    0x00003ef9      0x253 ..\obj\stm32_ub_atadrive.o
 .debug_line    0x0000414c     0x110c ..\obj\ff.o
 .debug_line    0x00005258      0x278 ..\obj\usb_hcd.o
 .debug_line    0x000054d0      0x321 ..\obj\usbh_msc_bot.o
 .debug_line    0x000057f1      0x2a1 ..\obj\usbh_ioreq.o
 .debug_line    0x00005a92      0x28b ..\obj\misc.o
 .debug_line    0x00005d1d      0x414 ..\obj\usb_hcd_int.o

.debug_str      0x00000000     0x4f76
 .debug_str     0x00000000     0x1046 ..\obj\usb_core.o
                               0x1334 (size before relaxing)
 .debug_str     0x00001046      0xabb ..\obj\stm32_ub_usb_msc_host.o
                               0x129f (size before relaxing)
 .debug_str     0x00001b01       0xf8 ..\obj\usbh_hcs.o
                                0x854 (size before relaxing)
 .debug_str     0x00001bf9      0x21a ..\obj\usbh_stdreq.o
                               0x12bc (size before relaxing)
 .debug_str     0x00001e13       0xbd ..\obj\diskio.o
                                0x331 (size before relaxing)
 .debug_str     0x00001ed0       0xd3 ..\obj\startup_stm32f4xx.o
                                0x1be (size before relaxing)
 .debug_str     0x00001fa3      0x2c4 ..\obj\stm32_ub_led.o
                                0x3c6 (size before relaxing)
 .debug_str     0x00002267      0x345 ..\obj\main.o
                                0x5cb (size before relaxing)
 .debug_str     0x000025ac      0x1d1 ..\obj\stm32_ub_fatfs.o
                                0x6d8 (size before relaxing)
 .debug_str     0x0000277d      0x6ba ..\obj\stm32f4xx_rcc.o
                                0x80e (size before relaxing)
 .debug_str     0x00002e37      0x3d2 ..\obj\usbh_msc_core.o
                               0x147d (size before relaxing)
 .debug_str     0x00003209      0x126 ..\obj\usbh_core.o
                               0x1209 (size before relaxing)
 .debug_str     0x0000332f       0xe2 ..\obj\stm32_ub_sdcard.o
                                0x200 (size before relaxing)
 .debug_str     0x00003411      0x1be ..\obj\stm32f4xx_gpio.o
                                0x461 (size before relaxing)
 .debug_str     0x000035cf      0x15b ..\obj\stm32_ub_usbdisk.o
                               0x13aa (size before relaxing)
 .debug_str     0x0000372a      0x244 ..\obj\usbh_msc_scsi.o
                                0xbfb (size before relaxing)
 .debug_str     0x0000396e      0x13a ..\obj\system_stm32f4xx.o
                                0x36f (size before relaxing)
 .debug_str     0x00003aa8      0x24a ..\obj\usbh_usr.o
                                0x83c (size before relaxing)
 .debug_str     0x00003cf2       0x84 ..\obj\ccsbcs.o
                                0x139 (size before relaxing)
 .debug_str     0x00003d76      0x697 ..\obj\usb_bsp.o
                                0xfdf (size before relaxing)
 .debug_str     0x0000440d       0xe8 ..\obj\stm32_ub_atadrive.o
                                0x206 (size before relaxing)
 .debug_str     0x000044f5      0x311 ..\obj\ff.o
                                0x6e3 (size before relaxing)
 .debug_str     0x00004806      0x112 ..\obj\usb_hcd.o
                                0x8f1 (size before relaxing)
 .debug_str     0x00004918      0x118 ..\obj\usbh_msc_bot.o
                               0x1465 (size before relaxing)
 .debug_str     0x00004a30      0x11f ..\obj\usbh_ioreq.o
                               0x11c5 (size before relaxing)
 .debug_str     0x00004b4f      0x17c ..\obj\misc.o
                                0x397 (size before relaxing)
 .debug_str     0x00004ccb      0x2ab ..\obj\usb_hcd_int.o
                                0xefb (size before relaxing)

.comment        0x00000000       0x70
 .comment       0x00000000       0x70 ..\obj\usb_core.o
                                 0x71 (size before relaxing)
 .comment       0x00000000       0x71 ..\obj\stm32_ub_usb_msc_host.o
 .comment       0x00000000       0x71 ..\obj\usbh_hcs.o
 .comment       0x00000000       0x71 ..\obj\usbh_stdreq.o
 .comment       0x00000000       0x71 ..\obj\diskio.o
 .comment       0x00000000       0x71 ..\obj\startup_stm32f4xx.o
 .comment       0x00000000       0x71 ..\obj\stm32_ub_led.o
 .comment       0x00000000       0x71 ..\obj\main.o
 .comment       0x00000000       0x71 ..\obj\stm32_ub_fatfs.o
 .comment       0x00000000       0x71 ..\obj\stm32f4xx_rcc.o
 .comment       0x00000000       0x71 ..\obj\usbh_msc_core.o
 .comment       0x00000000       0x71 ..\obj\usbh_core.o
 .comment       0x00000000       0x71 ..\obj\stm32_ub_sdcard.o
 .comment       0x00000000       0x71 ..\obj\stm32f4xx_gpio.o
 .comment       0x00000000       0x71 ..\obj\stm32_ub_usbdisk.o
 .comment       0x00000000       0x71 ..\obj\usbh_msc_scsi.o
 .comment       0x00000000       0x71 ..\obj\system_stm32f4xx.o
 .comment       0x00000000       0x71 ..\obj\usbh_usr.o
 .comment       0x00000000       0x71 ..\obj\ccsbcs.o
 .comment       0x00000000       0x71 ..\obj\usb_bsp.o
 .comment       0x00000000       0x71 ..\obj\stm32_ub_atadrive.o
 .comment       0x00000000       0x71 ..\obj\ff.o
 .comment       0x00000000       0x71 ..\obj\usb_hcd.o
 .comment       0x00000000       0x71 ..\obj\usbh_msc_bot.o
 .comment       0x00000000       0x71 ..\obj\usbh_ioreq.o
 .comment       0x00000000       0x71 ..\obj\misc.o
 .comment       0x00000000       0x71 ..\obj\usb_hcd_int.o

.ARM.attributes
                0x00000000       0x33
 .ARM.attributes
                0x00000000       0x33 ..\obj\usb_core.o
 .ARM.attributes
                0x00000033       0x33 ..\obj\stm32_ub_usb_msc_host.o
 .ARM.attributes
                0x00000066       0x33 ..\obj\usbh_hcs.o
 .ARM.attributes
                0x00000099       0x33 ..\obj\usbh_stdreq.o
 .ARM.attributes
                0x000000cc       0x33 ..\obj\diskio.o
 .ARM.attributes
                0x000000ff       0x33 ..\obj\startup_stm32f4xx.o
 .ARM.attributes
                0x00000132       0x33 ..\obj\stm32_ub_led.o
 .ARM.attributes
                0x00000165       0x33 ..\obj\main.o
 .ARM.attributes
                0x00000198       0x33 ..\obj\stm32_ub_fatfs.o
 .ARM.attributes
                0x000001cb       0x33 ..\obj\stm32f4xx_rcc.o
 .ARM.attributes
                0x000001fe       0x33 ..\obj\usbh_msc_core.o
 .ARM.attributes
                0x00000231       0x33 ..\obj\usbh_core.o
 .ARM.attributes
                0x00000264       0x33 ..\obj\stm32_ub_sdcard.o
 .ARM.attributes
                0x00000297       0x33 ..\obj\stm32f4xx_gpio.o
 .ARM.attributes
                0x000002ca       0x33 ..\obj\stm32_ub_usbdisk.o
 .ARM.attributes
                0x000002fd       0x33 ..\obj\usbh_msc_scsi.o
 .ARM.attributes
                0x00000330       0x33 ..\obj\system_stm32f4xx.o
 .ARM.attributes
                0x00000363       0x33 ..\obj\usbh_usr.o
 .ARM.attributes
                0x00000396       0x33 ..\obj\ccsbcs.o
 .ARM.attributes
                0x000003c9       0x33 ..\obj\usb_bsp.o
 .ARM.attributes
                0x000003fc       0x33 ..\obj\stm32_ub_atadrive.o
 .ARM.attributes
                0x0000042f       0x33 ..\obj\ff.o
 .ARM.attributes
                0x00000462       0x33 ..\obj\usb_hcd.o
 .ARM.attributes
                0x00000495       0x33 ..\obj\usbh_msc_bot.o
 .ARM.attributes
                0x000004c8       0x33 ..\obj\usbh_ioreq.o
 .ARM.attributes
                0x000004fb       0x33 ..\obj\misc.o
 .ARM.attributes
                0x0000052e       0x33 ..\obj\usb_hcd_int.o

.debug_frame    0x00000000     0x2450
 .debug_frame   0x00000000      0x370 ..\obj\usb_core.o
 .debug_frame   0x00000370       0x4c ..\obj\stm32_ub_usb_msc_host.o
 .debug_frame   0x000003bc       0xc4 ..\obj\usbh_hcs.o
 .debug_frame   0x00000480      0x19c ..\obj\usbh_stdreq.o
 .debug_frame   0x0000061c       0xc8 ..\obj\diskio.o
 .debug_frame   0x000006e4       0x48 ..\obj\startup_stm32f4xx.o
 .debug_frame   0x0000072c       0xa8 ..\obj\stm32_ub_led.o
 .debug_frame   0x000007d4       0x4c ..\obj\main.o
 .debug_frame   0x00000820      0x188 ..\obj\stm32_ub_fatfs.o
 .debug_frame   0x000009a8      0x4d8 ..\obj\stm32f4xx_rcc.o
 .debug_frame   0x00000e80       0xe8 ..\obj\usbh_msc_core.o
 .debug_frame   0x00000f68      0x108 ..\obj\usbh_core.o
 .debug_frame   0x00001070       0xd0 ..\obj\stm32_ub_sdcard.o
 .debug_frame   0x00001140      0x19c ..\obj\stm32f4xx_gpio.o
 .debug_frame   0x000012dc       0xe4 ..\obj\stm32_ub_usbdisk.o
 .debug_frame   0x000013c0       0xd0 ..\obj\usbh_msc_scsi.o
 .debug_frame   0x00001490       0x64 ..\obj\system_stm32f4xx.o
 .debug_frame   0x000014f4      0x1d8 ..\obj\usbh_usr.o
 .debug_frame   0x000016cc       0x48 ..\obj\ccsbcs.o
 .debug_frame   0x00001714       0xe8 ..\obj\usb_bsp.o
 .debug_frame   0x000017fc       0xd0 ..\obj\stm32_ub_atadrive.o
 .debug_frame   0x000018cc      0x68c ..\obj\ff.o
 .debug_frame   0x00001f58      0x138 ..\obj\usb_hcd.o
 .debug_frame   0x00002090       0x90 ..\obj\usbh_msc_bot.o
 .debug_frame   0x00002120      0x12c ..\obj\usbh_ioreq.o
 .debug_frame   0x0000224c       0x9c ..\obj\misc.o
 .debug_frame   0x000022e8      0x168 ..\obj\usb_hcd_int.o
